; Function Attrs: nounwind uwtable
define noalias nonnull ptr @l_Lean_Server_RequestError_invalidParams(ptr noundef %0) local_unnamed_addr #1 {
  tail call void @lean_inc_heartbeat() #6
  %2 = tail call noalias ptr @mi_malloc_small(i64 noundef 24) #6
  %3 = icmp eq ptr %2, null
  br i1 %3, label %4, label %lean_alloc_ctor.exit

4:                                                ; preds = %1
  tail call void @lean_internal_panic_out_of_memory() #7
  unreachable

lean_alloc_ctor.exit:                             ; preds = %1
  %5 = getelementptr inbounds nuw i8, ptr %2, i64 4
  %6 = getelementptr inbounds nuw i8, ptr %2, i64 16
  store i64 3, ptr %6, align 8, !tbaa !12
  store i32 1, ptr %2, align 4, !tbaa !4
  store i32 65560, ptr %5, align 4
  %7 = getelementptr inbounds nuw i8, ptr %2, i64 8
  store ptr %0, ptr %7, align 8, !tbaa !9
  ret ptr %2
}